; Function Attrs: nounwind uwtable
define internal i32 @acpt_puts(ptr noundef %0, ptr noundef %1) #1 {
  %3 = tail call i64 @strlen(ptr noundef nonnull dereferenceable(1) %1) #8
  %4 = trunc i64 %3 to i32
  tail call void @BIO_clear_flags(ptr noundef %0, i32 noundef 15) #7
  %5 = getelementptr inbounds nuw i8, ptr %0, i64 64
  %6 = load ptr, ptr %5, align 8, !tbaa !3
  %7 = getelementptr inbounds nuw i8, ptr %0, i64 72
  br label %8

8:                                                ; preds = %11, %2
  %9 = load ptr, ptr %7, align 8, !tbaa !17
  %10 = icmp eq ptr %9, null
  br i1 %10, label %11, label %14

11:                                               ; preds = %8
  %12 = tail call fastcc i32 @acpt_state(ptr noundef nonnull %0, ptr noundef %6)
  %13 = icmp slt i32 %12, 1
  br i1 %13, label %acpt_write.exit, label %8, !llvm.loop !18

14:                                               ; preds = %8
  %15 = tail call i32 @BIO_write(ptr noundef nonnull %9, ptr noundef nonnull %1, i32 noundef %4) #7
  tail call void @BIO_copy_next_retry(ptr noundef nonnull %0) #7
  br label %acpt_write.exit

acpt_write.exit:                                  ; preds = %11, %14
  %.0.i = phi i32 [ %15, %14 ], [ %12, %11 ]
  ret i32 %.0.i
}